target datalayout = "e-m:e-p270:32:32-p271:32:32-p272:64:64-i64:64-i128:128-f80:128-n8:16:32:64-S128"
target triple = "x86_64-pc-linux-gnu"

@_mi_heap_default = external thread_local(initialexec) global ptr, align 8

; Function Attrs: inlinehint nounwind uwtable
define internal zeroext i1 @mi_mul_overflow(i64 noundef %0, i64 noundef %1, ptr noundef %2) #2 {
  %4 = alloca i64, align 8
  %5 = alloca i64, align 8
  %6 = alloca ptr, align 8
  store i64 %0, ptr %4, align 8, !tbaa !8
  store i64 %1, ptr %5, align 8, !tbaa !8
  store ptr %2, ptr %6, align 8, !tbaa !22
  %7 = load i64, ptr %4, align 8, !tbaa !8
  %8 = load i64, ptr %5, align 8, !tbaa !8
  %9 = load ptr, ptr %6, align 8, !tbaa !22
  %10 = call { i64, i1 } @llvm.umul.with.overflow.i64(i64 %7, i64 %8)
  %11 = extractvalue { i64, i1 } %10, 1
  %12 = extractvalue { i64, i1 } %10, 0
  store i64 %12, ptr %9, align 8
  ret i1 %11
}

; Function Attrs: nounwind uwtable
define hidden ptr @mi_heap_rezalloc_aligned_at(ptr noundef %0, ptr noundef %1, i64 noundef %2, i64 noundef %3, i64 noundef %4) #0 {
  %6 = alloca ptr, align 8
  %7 = alloca ptr, align 8
  %8 = alloca i64, align 8
  %9 = alloca i64, align 8
  %10 = alloca i64, align 8
  store ptr %0, ptr %6, align 8, !tbaa !3
  store ptr %1, ptr %7, align 8, !tbaa !21
  store i64 %2, ptr %8, align 8, !tbaa !8
  store i64 %3, ptr %9, align 8, !tbaa !8
  store i64 %4, ptr %10, align 8, !tbaa !8
  %11 = load ptr, ptr %6, align 8, !tbaa !3
  %12 = load ptr, ptr %7, align 8, !tbaa !21
  %13 = load i64, ptr %8, align 8, !tbaa !8
  %14 = load i64, ptr %9, align 8, !tbaa !8
  %15 = load i64, ptr %10, align 8, !tbaa !8
  %16 = call ptr @mi_heap_realloc_zero_aligned_at(ptr noundef %11, ptr noundef %12, i64 noundef %13, i64 noundef %14, i64 noundef %15, i1 noundef zeroext true) #10
  ret ptr %16
}

; Function Attrs: inlinehint nounwind uwtable
define internal zeroext i1 @mi_count_size_overflow(i64 noundef %0, i64 noundef %1, ptr noundef %2) #2 {
  %4 = alloca i1, align 1
  %5 = alloca i64, align 8
  %6 = alloca i64, align 8
  %7 = alloca ptr, align 8
  store i64 %0, ptr %5, align 8, !tbaa !8
  store i64 %1, ptr %6, align 8, !tbaa !8
  store ptr %2, ptr %7, align 8, !tbaa !22
  %8 = load i64, ptr %5, align 8, !tbaa !8
  %9 = icmp eq i64 %8, 1
  br i1 %9, label %10, label %13

10:                                               ; preds = %3
  %11 = load i64, ptr %6, align 8, !tbaa !8
  %12 = load ptr, ptr %7, align 8, !tbaa !22
  store i64 %11, ptr %12, align 8, !tbaa !8
  store i1 false, ptr %4, align 1
  br label %27

13:                                               ; preds = %3
  %14 = load i64, ptr %5, align 8, !tbaa !8
  %15 = load i64, ptr %6, align 8, !tbaa !8
  %16 = load ptr, ptr %7, align 8, !tbaa !22
  %17 = call zeroext i1 @mi_mul_overflow(i64 noundef %14, i64 noundef %15, ptr noundef %16) #10
  %18 = xor i1 %17, true
  %19 = xor i1 %18, true
  %20 = zext i1 %19 to i32
  %21 = sext i32 %20 to i64
  %22 = call i64 @llvm.expect.i64(i64 %21, i64 0)
  %23 = icmp ne i64 %22, 0
  br i1 %23, label %24, label %26

24:                                               ; preds = %13
  %25 = load ptr, ptr %7, align 8, !tbaa !22
  store i64 -1, ptr %25, align 8, !tbaa !8
  store i1 true, ptr %4, align 1
  br label %27

26:                                               ; preds = %13
  store i1 false, ptr %4, align 1
  br label %27

27:                                               ; preds = %26, %24, %10
  %28 = load i1, ptr %4, align 1
  ret i1 %28
}

; Function Attrs: nounwind uwtable
define hidden ptr @mi_heap_recalloc_aligned_at(ptr noundef %0, ptr noundef %1, i64 noundef %2, i64 noundef %3, i64 noundef %4, i64 noundef %5) #0 {
  %7 = alloca ptr, align 8
  %8 = alloca ptr, align 8
  %9 = alloca ptr, align 8
  %10 = alloca i64, align 8
  %11 = alloca i64, align 8
  %12 = alloca i64, align 8
  %13 = alloca i64, align 8
  %14 = alloca i64, align 8
  %15 = alloca i32, align 4
  store ptr %0, ptr %8, align 8, !tbaa !3
  store ptr %1, ptr %9, align 8, !tbaa !21
  store i64 %2, ptr %10, align 8, !tbaa !8
  store i64 %3, ptr %11, align 8, !tbaa !8
  store i64 %4, ptr %12, align 8, !tbaa !8
  store i64 %5, ptr %13, align 8, !tbaa !8
  call void @llvm.lifetime.start.p0(i64 8, ptr %14) #11
  %16 = load i64, ptr %10, align 8, !tbaa !8
  %17 = load i64, ptr %11, align 8, !tbaa !8
  %18 = call zeroext i1 @mi_count_size_overflow(i64 noundef %16, i64 noundef %17, ptr noundef %14) #10
  br i1 %18, label %19, label %20

19:                                               ; preds = %6
  store ptr null, ptr %7, align 8
  store i32 1, ptr %15, align 4
  br label %27

20:                                               ; preds = %6
  %21 = load ptr, ptr %8, align 8, !tbaa !3
  %22 = load ptr, ptr %9, align 8, !tbaa !21
  %23 = load i64, ptr %14, align 8, !tbaa !8
  %24 = load i64, ptr %12, align 8, !tbaa !8
  %25 = load i64, ptr %13, align 8, !tbaa !8
  %26 = call ptr @mi_heap_rezalloc_aligned_at(ptr noundef %21, ptr noundef %22, i64 noundef %23, i64 noundef %24, i64 noundef %25) #10
  store ptr %26, ptr %7, align 8
  store i32 1, ptr %15, align 4
  br label %27

27:                                               ; preds = %20, %19
  call void @llvm.lifetime.end.p0(i64 8, ptr %14) #11
  %28 = load ptr, ptr %7, align 8
  ret ptr %28
}

; Function Attrs: inlinehint nounwind uwtable
define internal ptr @mi_prim_get_default_heap() #2 {
  %1 = call align 8 ptr @llvm.threadlocal.address.p0(ptr align 8 @_mi_heap_default)
  %2 = load ptr, ptr %1, align 8, !tbaa !3
  ret ptr %2
}

; Function Attrs: nounwind uwtable
define hidden ptr @mi_recalloc_aligned_at(ptr noundef %0, i64 noundef %1, i64 noundef %2, i64 noundef %3, i64 noundef %4) #0 {
  %6 = alloca ptr, align 8
  %7 = alloca i64, align 8
  %8 = alloca i64, align 8
  %9 = alloca i64, align 8
  %10 = alloca i64, align 8
  store ptr %0, ptr %6, align 8, !tbaa !21
  store i64 %1, ptr %7, align 8, !tbaa !8
  store i64 %2, ptr %8, align 8, !tbaa !8
  store i64 %3, ptr %9, align 8, !tbaa !8
  store i64 %4, ptr %10, align 8, !tbaa !8
  %11 = call ptr @mi_prim_get_default_heap() #10
  %12 = load ptr, ptr %6, align 8, !tbaa !21
  %13 = load i64, ptr %7, align 8, !tbaa !8
  %14 = load i64, ptr %8, align 8, !tbaa !8
  %15 = load i64, ptr %9, align 8, !tbaa !8
  %16 = load i64, ptr %10, align 8, !tbaa !8
  %17 = call ptr @mi_heap_recalloc_aligned_at(ptr noundef %11, ptr noundef %12, i64 noundef %13, i64 noundef %14, i64 noundef %15, i64 noundef %16) #10
  ret ptr %17
}