; Function Attrs: nounwind uwtable
define hidden ptr @mi_recalloc_aligned_at(ptr noundef %0, i64 noundef %1, i64 noundef %2, i64 noundef %3, i64 noundef %4) local_unnamed_addr #0 {
  %6 = tail call align 8 ptr @llvm.threadlocal.address.p0(ptr align 8 @_mi_heap_default)
  %7 = load ptr, ptr %6, align 8, !tbaa !17
  %.not.i = icmp eq i64 %1, 1
  br i1 %.not.i, label %12, label %8

8:                                                ; preds = %5
  %9 = tail call { i64, i1 } @llvm.umul.with.overflow.i64(i64 range(i64 2, 1) %1, i64 %2)
  %10 = extractvalue { i64, i1 } %9, 1
  %11 = extractvalue { i64, i1 } %9, 0
  br i1 %10, label %mi_heap_recalloc_aligned_at.exit, label %12, !prof !16

12:                                               ; preds = %8, %5
  %storemerge.i.ph.i = phi i64 [ %2, %5 ], [ %11, %8 ]
  %13 = tail call fastcc ptr @mi_heap_realloc_zero_aligned_at(ptr noundef %7, ptr noundef %0, i64 noundef %storemerge.i.ph.i, i64 noundef %3, i64 noundef %4, i1 noundef zeroext true) #9
  br label %mi_heap_recalloc_aligned_at.exit

mi_heap_recalloc_aligned_at.exit:                 ; preds = %8, %12
  %.0.i = phi ptr [ %13, %12 ], [ null, %8 ]
  ret ptr %.0.i
}